; Function Attrs: nounwind uwtable
define ptr @l_Array_mapMUnsafe_map___at___private_Lean_Meta_Tactic_Grind_Arith_CommRing_Proof_0__Lean_Meta_Grind_Arith_CommRing_Stepwise_withProofContext_go___spec__13(i64 noundef %0, i64 noundef %1, ptr noundef %2) local_unnamed_addr #1 {
  %.not45 = icmp ult i64 %1, %0
  br i1 %.not45, label %.lr.ph, label %._crit_edge

.lr.ph:                                           ; preds = %3, %63
  %.02047 = phi i64 [ %47, %63 ], [ %1, %3 ]
  %.02246 = phi ptr [ %.0.i.i32, %63 ], [ %2, %3 ]
  %4 = getelementptr inbounds nuw i8, ptr %.02246, i64 24
  %5 = getelementptr inbounds nuw [0 x ptr], ptr %4, i64 0, i64 %.02047
  %6 = load ptr, ptr %5, align 8, !tbaa !11
  %7 = ptrtoint ptr %6 to i64
  %8 = and i64 %7, 1
  %.not.i25 = icmp eq i64 %8, 0
  br i1 %.not.i25, label %9, label %lean_array_uget.exit

9:                                                ; preds = %.lr.ph
  %.val.i.i = load i32, ptr %6, align 4, !tbaa !6
  %10 = icmp sgt i32 %.val.i.i, 0
  br i1 %10, label %11, label %13, !prof !5

11:                                               ; preds = %9
  %12 = add nuw i32 %.val.i.i, 1
  store i32 %12, ptr %6, align 4, !tbaa !6
  br label %lean_array_uget.exit

13:                                               ; preds = %9
  %.not.i.i = icmp eq i32 %.val.i.i, 0
  br i1 %.not.i.i, label %lean_array_uget.exit, label %14

14:                                               ; preds = %13
  tail call void @lean_inc_ref_cold(ptr noundef nonnull %6) #6
  br label %lean_array_uget.exit

lean_array_uget.exit:                             ; preds = %.lr.ph, %11, %13, %14
  %.val.i.i26 = load i32, ptr %.02246, align 4, !tbaa !6
  %15 = icmp eq i32 %.val.i.i26, 1
  br i1 %15, label %lean_ensure_exclusive_array.exit.i, label %16

16:                                               ; preds = %lean_array_uget.exit
  %17 = tail call ptr @lean_copy_expand_array(ptr noundef nonnull %.02246, i1 noundef zeroext false) #6
  br label %lean_ensure_exclusive_array.exit.i

lean_ensure_exclusive_array.exit.i:               ; preds = %16, %lean_array_uget.exit
  %.0.i.i = phi ptr [ %17, %16 ], [ %.02246, %lean_array_uget.exit ]
  %18 = getelementptr inbounds nuw i8, ptr %.0.i.i, i64 24
  %19 = getelementptr inbounds nuw ptr, ptr %18, i64 %.02047
  %20 = load ptr, ptr %19, align 8, !tbaa !11
  %21 = ptrtoint ptr %20 to i64
  %22 = and i64 %21, 1
  %.not.i27 = icmp eq i64 %22, 0
  br i1 %.not.i27, label %23, label %lean_array_uset.exit

23:                                               ; preds = %lean_ensure_exclusive_array.exit.i
  %24 = load i32, ptr %20, align 4, !tbaa !6
  %25 = icmp sgt i32 %24, 1
  br i1 %25, label %26, label %28, !prof !5

26:                                               ; preds = %23
  %27 = add nsw i32 %24, -1
  store i32 %27, ptr %20, align 4, !tbaa !6
  br label %lean_array_uset.exit

28:                                               ; preds = %23
  %.not.i.i28 = icmp eq i32 %24, 0
  br i1 %.not.i.i28, label %lean_array_uset.exit, label %29

29:                                               ; preds = %28
  tail call void @lean_dec_ref_cold(ptr noundef nonnull %20) #6
  br label %lean_array_uset.exit

lean_array_uset.exit:                             ; preds = %lean_ensure_exclusive_array.exit.i, %26, %28, %29
  store ptr inttoptr (i64 1 to ptr), ptr %19, align 8, !tbaa !11
  %30 = getelementptr inbounds nuw i8, ptr %6, i64 16
  %31 = load ptr, ptr %30, align 8, !tbaa !11
  %32 = ptrtoint ptr %31 to i64
  %33 = and i64 %32, 1
  %.not43 = icmp eq i64 %33, 0
  br i1 %.not43, label %34, label %lean_inc.exit

34:                                               ; preds = %lean_array_uset.exit
  %.val.i = load i32, ptr %31, align 4, !tbaa !6
  %35 = icmp sgt i32 %.val.i, 0
  br i1 %35, label %36, label %38, !prof !5

36:                                               ; preds = %34
  %37 = add nuw i32 %.val.i, 1
  store i32 %37, ptr %31, align 4, !tbaa !6
  br label %lean_inc.exit

38:                                               ; preds = %34
  %.not.i29 = icmp eq i32 %.val.i, 0
  br i1 %.not.i29, label %lean_inc.exit, label %39

39:                                               ; preds = %38
  tail call void @lean_inc_ref_cold(ptr noundef nonnull %31) #6
  br label %lean_inc.exit

lean_inc.exit:                                    ; preds = %39, %38, %36, %lean_array_uset.exit
  br i1 %.not.i25, label %40, label %lean_dec.exit

40:                                               ; preds = %lean_inc.exit
  %41 = load i32, ptr %6, align 4, !tbaa !6
  %42 = icmp sgt i32 %41, 1
  br i1 %42, label %43, label %45, !prof !5

43:                                               ; preds = %40
  %44 = add nsw i32 %41, -1
  store i32 %44, ptr %6, align 4, !tbaa !6
  br label %lean_dec.exit

45:                                               ; preds = %40
  %.not.i = icmp eq i32 %41, 0
  br i1 %.not.i, label %lean_dec.exit, label %46

46:                                               ; preds = %45
  tail call void @lean_dec_ref_cold(ptr noundef nonnull %6) #6
  br label %lean_dec.exit

lean_dec.exit:                                    ; preds = %46, %45, %43, %lean_inc.exit
  %47 = add nuw i64 %.02047, 1
  %.val.i.i30 = load i32, ptr %.0.i.i, align 4, !tbaa !6
  %48 = icmp eq i32 %.val.i.i30, 1
  br i1 %48, label %lean_ensure_exclusive_array.exit.i31, label %49

49:                                               ; preds = %lean_dec.exit
  %50 = tail call ptr @lean_copy_expand_array(ptr noundef nonnull %.0.i.i, i1 noundef zeroext false) #6
  br label %lean_ensure_exclusive_array.exit.i31

lean_ensure_exclusive_array.exit.i31:             ; preds = %49, %lean_dec.exit
  %.0.i.i32 = phi ptr [ %50, %49 ], [ %.0.i.i, %lean_dec.exit ]
  %51 = getelementptr inbounds nuw i8, ptr %.0.i.i32, i64 24
  %52 = getelementptr inbounds nuw ptr, ptr %51, i64 %.02047
  %53 = load ptr, ptr %52, align 8, !tbaa !11
  %54 = ptrtoint ptr %53 to i64
  %55 = and i64 %54, 1
  %.not.i33 = icmp eq i64 %55, 0
  br i1 %.not.i33, label %56, label %63

56:                                               ; preds = %lean_ensure_exclusive_array.exit.i31
  %57 = load i32, ptr %53, align 4, !tbaa !6
  %58 = icmp sgt i32 %57, 1
  br i1 %58, label %59, label %61, !prof !5

59:                                               ; preds = %56
  %60 = add nsw i32 %57, -1
  store i32 %60, ptr %53, align 4, !tbaa !6
  br label %63

61:                                               ; preds = %56
  %.not.i.i34 = icmp eq i32 %57, 0
  br i1 %.not.i.i34, label %63, label %62

62:                                               ; preds = %61
  tail call void @lean_dec_ref_cold(ptr noundef nonnull %53) #6
  br label %63

63:                                               ; preds = %62, %61, %59, %lean_ensure_exclusive_array.exit.i31
  store ptr %31, ptr %52, align 8, !tbaa !11
  %exitcond.not = icmp eq i64 %47, %0
  br i1 %exitcond.not, label %._crit_edge, label %.lr.ph

._crit_edge:                                      ; preds = %63, %3
  %.022.lcssa = phi ptr [ %2, %3 ], [ %.0.i.i32, %63 ]
  ret ptr %.022.lcssa
}